target datalayout = "e-m:e-p270:32:32-p271:32:32-p272:64:64-i64:64-i128:128-f80:128-n8:16:32:64-S128"
target triple = "x86_64-pc-linux-gnu"

%struct.IDAMemRec = type { double, ptr, ptr, i32, double, double, ptr, i32, ptr, ptr, i32, ptr, ptr, i32, i32, double, double, ptr, i32, i32, i32, ptr, ptr, i32, ptr, ptr, ptr, i32, double, i32, i32, double, ptr, ptr, i32, ptr, ptr, i32, i32, i32, double, ptr, ptr, [6 x ptr], [6 x double], [6 x double], [6 x double], [6 x double], [6 x double], ptr, ptr, ptr, ptr, ptr, ptr, ptr, ptr, ptr, ptr, ptr, ptr, ptr, ptr, ptr, [6 x ptr], ptr, ptr, ptr, ptr, [6 x ptr], ptr, ptr, ptr, ptr, ptr, ptr, ptr, ptr, ptr, ptr, ptr, ptr, ptr, ptr, [6 x ptr], ptr, ptr, ptr, ptr, ptr, double, ptr, ptr, i32, i32, i32, i32, i32, i32, i32, double, double, double, i32, double, i32, i32, i32, i32, double, double, double, double, double, double, double, double, double, double, double, double, double, double, i32, i32, i32, i32, i32, i64, double, i32, i64, i64, i64, i64, i64, i64, i64, i64, i64, i64, i64, i64, i64, i64, i64, i64, i64, i64, i64, i64, i64, i64, i64, i64, ptr, ptr, ptr, i32, i32, i32, i32, i32, i32, i32, i32, i32, i32, i32, i32, i32, ptr, ptr, ptr, ptr, ptr, ptr, i32, i32, i32, i32, i32, i32, double, double, double, ptr, i32, ptr, ptr, double, double, double, ptr, ptr, ptr, double, double, i32, i32, i64, ptr, i32, i32, ptr, i32 }
%struct.IDADlsMemRec = type { i32, i64, i64, i64, i64, i32, ptr, ptr, ptr, ptr, ptr, ptr, i64, i64, i64 }
%struct.IDAadjMemRec = type { double, double, i32, i32, double, ptr, i32, ptr, i32, ptr, ptr, i32, i64, ptr, i64, i32, ptr, ptr, ptr, ptr, i32, i32, i32, i32, i32, [6 x ptr], [6 x ptr], [6 x double], ptr, ptr, ptr, ptr, i64 }
%struct.IDABMemRec = type { i32, double, ptr, i32, i32, ptr, ptr, ptr, ptr, ptr, ptr, ptr, ptr, ptr, double, ptr, ptr, ptr }
%struct.IDADlsMemRecB = type { i32, ptr, ptr, ptr, ptr }

@.str = private unnamed_addr constant [8 x i8] c"IDASDLS\00", align 1
@.str.2 = private unnamed_addr constant [27 x i8] c"Integrator memory is NULL.\00", align 1
@.str.3 = private unnamed_addr constant [30 x i8] c"Linear solver memory is NULL.\00", align 1
@.str.4 = private unnamed_addr constant [19 x i8] c"IDADlsSetBandJacFn\00", align 1
@.str.18 = private unnamed_addr constant [27 x i8] c"idaadj_mem = NULL illegal.\00", align 1
@.str.19 = private unnamed_addr constant [51 x i8] c"Illegal attempt to call before calling IDAAdjInit.\00", align 1
@.str.20 = private unnamed_addr constant [25 x i8] c"Illegal value for which.\00", align 1
@.str.21 = private unnamed_addr constant [59 x i8] c"Linear solver memory is NULL for the backward integration.\00", align 1
@.str.23 = private unnamed_addr constant [20 x i8] c"IDADlsSetBandJacFnB\00", align 1

; Function Attrs: nounwind uwtable
define i32 @IDADlsSetBandJacFn(ptr noundef %0, ptr noundef %1) #0 {
  %3 = alloca i32, align 4
  %4 = alloca ptr, align 8
  %5 = alloca ptr, align 8
  %6 = alloca ptr, align 8
  %7 = alloca ptr, align 8
  %8 = alloca i32, align 4
  store ptr %0, ptr %4, align 8, !tbaa !3
  store ptr %1, ptr %5, align 8, !tbaa !3
  call void @llvm.lifetime.start.p0(i64 8, ptr %6) #6
  call void @llvm.lifetime.start.p0(i64 8, ptr %7) #6
  %9 = load ptr, ptr %4, align 8, !tbaa !3
  %10 = icmp eq ptr %9, null
  br i1 %10, label %11, label %12

11:                                               ; preds = %2
  call void (ptr, i32, ptr, ptr, ptr, ...) @IDAProcessError(ptr noundef null, i32 noundef -1, ptr noundef @.str, ptr noundef @.str.4, ptr noundef @.str.2)
  store i32 -1, ptr %3, align 4
  store i32 1, ptr %8, align 4
  br label %36

12:                                               ; preds = %2
  %13 = load ptr, ptr %4, align 8, !tbaa !3
  store ptr %13, ptr %6, align 8, !tbaa !7
  %14 = load ptr, ptr %6, align 8, !tbaa !7
  %15 = getelementptr inbounds nuw %struct.IDAMemRec, ptr %14, i32 0, i32 176
  %16 = load ptr, ptr %15, align 8, !tbaa !9
  %17 = icmp eq ptr %16, null
  br i1 %17, label %18, label %20

18:                                               ; preds = %12
  %19 = load ptr, ptr %6, align 8, !tbaa !7
  call void (ptr, i32, ptr, ptr, ptr, ...) @IDAProcessError(ptr noundef %19, i32 noundef -2, ptr noundef @.str, ptr noundef @.str.4, ptr noundef @.str.3)
  store i32 -2, ptr %3, align 4
  store i32 1, ptr %8, align 4
  br label %36

20:                                               ; preds = %12
  %21 = load ptr, ptr %6, align 8, !tbaa !7
  %22 = getelementptr inbounds nuw %struct.IDAMemRec, ptr %21, i32 0, i32 176
  %23 = load ptr, ptr %22, align 8, !tbaa !9
  store ptr %23, ptr %7, align 8, !tbaa !20
  %24 = load ptr, ptr %5, align 8, !tbaa !3
  %25 = icmp ne ptr %24, null
  br i1 %25, label %26, label %32

26:                                               ; preds = %20
  %27 = load ptr, ptr %7, align 8, !tbaa !20
  %28 = getelementptr inbounds nuw %struct.IDADlsMemRec, ptr %27, i32 0, i32 5
  store i32 0, ptr %28, align 8, !tbaa !22
  %29 = load ptr, ptr %5, align 8, !tbaa !3
  %30 = load ptr, ptr %7, align 8, !tbaa !20
  %31 = getelementptr inbounds nuw %struct.IDADlsMemRec, ptr %30, i32 0, i32 7
  store ptr %29, ptr %31, align 8, !tbaa !27
  br label %35

32:                                               ; preds = %20
  %33 = load ptr, ptr %7, align 8, !tbaa !20
  %34 = getelementptr inbounds nuw %struct.IDADlsMemRec, ptr %33, i32 0, i32 5
  store i32 1, ptr %34, align 8, !tbaa !22
  br label %35

35:                                               ; preds = %32, %26
  store i32 0, ptr %3, align 4
  store i32 1, ptr %8, align 4
  br label %36

36:                                               ; preds = %35, %18, %11
  call void @llvm.lifetime.end.p0(i64 8, ptr %7) #6
  call void @llvm.lifetime.end.p0(i64 8, ptr %6) #6
  %37 = load i32, ptr %3, align 4
  ret i32 %37
}

; Function Attrs: nounwind uwtable
define i32 @IDADlsSetBandJacFnB(ptr noundef %0, i32 noundef %1, ptr noundef %2) #0 {
  %4 = alloca i32, align 4
  %5 = alloca ptr, align 8
  %6 = alloca i32, align 4
  %7 = alloca ptr, align 8
  %8 = alloca ptr, align 8
  %9 = alloca ptr, align 8
  %10 = alloca ptr, align 8
  %11 = alloca ptr, align 8
  %12 = alloca ptr, align 8
  %13 = alloca i32, align 4
  %14 = alloca i32, align 4
  store ptr %0, ptr %5, align 8, !tbaa !3
  store i32 %1, ptr %6, align 4, !tbaa !43
  store ptr %2, ptr %7, align 8, !tbaa !3
  call void @llvm.lifetime.start.p0(i64 8, ptr %8) #6
  call void @llvm.lifetime.start.p0(i64 8, ptr %9) #6
  call void @llvm.lifetime.start.p0(i64 8, ptr %10) #6
  call void @llvm.lifetime.start.p0(i64 8, ptr %11) #6
  call void @llvm.lifetime.start.p0(i64 8, ptr %12) #6
  call void @llvm.lifetime.start.p0(i64 4, ptr %13) #6
  %15 = load ptr, ptr %5, align 8, !tbaa !3
  %16 = icmp eq ptr %15, null
  br i1 %16, label %17, label %18

17:                                               ; preds = %3
  call void (ptr, i32, ptr, ptr, ptr, ...) @IDAProcessError(ptr noundef null, i32 noundef -1, ptr noundef @.str, ptr noundef @.str.23, ptr noundef @.str.18)
  store i32 -1, ptr %4, align 4
  store i32 1, ptr %14, align 4
  br label %84

18:                                               ; preds = %3
  %19 = load ptr, ptr %5, align 8, !tbaa !3
  store ptr %19, ptr %8, align 8, !tbaa !7
  %20 = load ptr, ptr %8, align 8, !tbaa !7
  %21 = getelementptr inbounds nuw %struct.IDAMemRec, ptr %20, i32 0, i32 205
  %22 = load i32, ptr %21, align 8, !tbaa !61
  %23 = icmp eq i32 %22, 0
  br i1 %23, label %24, label %26

24:                                               ; preds = %18
  %25 = load ptr, ptr %8, align 8, !tbaa !7
  call void (ptr, i32, ptr, ptr, ptr, ...) @IDAProcessError(ptr noundef %25, i32 noundef -101, ptr noundef @.str, ptr noundef @.str.23, ptr noundef @.str.19)
  store i32 -101, ptr %4, align 4
  store i32 1, ptr %14, align 4
  br label %84

26:                                               ; preds = %18
  %27 = load ptr, ptr %8, align 8, !tbaa !7
  %28 = getelementptr inbounds nuw %struct.IDAMemRec, ptr %27, i32 0, i32 204
  %29 = load ptr, ptr %28, align 8, !tbaa !62
  store ptr %29, ptr %9, align 8, !tbaa !63
  %30 = load i32, ptr %6, align 4, !tbaa !43
  %31 = load ptr, ptr %9, align 8, !tbaa !63
  %32 = getelementptr inbounds nuw %struct.IDAadjMemRec, ptr %31, i32 0, i32 6
  %33 = load i32, ptr %32, align 8, !tbaa !64
  %34 = icmp sge i32 %30, %33
  br i1 %34, label %35, label %37

35:                                               ; preds = %26
  %36 = load ptr, ptr %8, align 8, !tbaa !7
  call void (ptr, i32, ptr, ptr, ptr, ...) @IDAProcessError(ptr noundef %36, i32 noundef -3, ptr noundef @.str, ptr noundef @.str.23, ptr noundef @.str.20)
  store i32 -3, ptr %4, align 4
  store i32 1, ptr %14, align 4
  br label %84

37:                                               ; preds = %26
  %38 = load ptr, ptr %9, align 8, !tbaa !63
  %39 = getelementptr inbounds nuw %struct.IDAadjMemRec, ptr %38, i32 0, i32 5
  %40 = load ptr, ptr %39, align 8, !tbaa !69
  store ptr %40, ptr %10, align 8, !tbaa !70
  br label %41

41:                                               ; preds = %51, %37
  %42 = load ptr, ptr %10, align 8, !tbaa !70
  %43 = icmp ne ptr %42, null
  br i1 %43, label %44, label %55

44:                                               ; preds = %41
  %45 = load i32, ptr %6, align 4, !tbaa !43
  %46 = load ptr, ptr %10, align 8, !tbaa !70
  %47 = getelementptr inbounds nuw %struct.IDABMemRec, ptr %46, i32 0, i32 0
  %48 = load i32, ptr %47, align 8, !tbaa !71
  %49 = icmp eq i32 %45, %48
  br i1 %49, label %50, label %51

50:                                               ; preds = %44
  br label %55

51:                                               ; preds = %44
  %52 = load ptr, ptr %10, align 8, !tbaa !70
  %53 = getelementptr inbounds nuw %struct.IDABMemRec, ptr %52, i32 0, i32 17
  %54 = load ptr, ptr %53, align 8, !tbaa !73
  store ptr %54, ptr %10, align 8, !tbaa !70
  br label %41, !llvm.loop !92

55:                                               ; preds = %50, %41
  %56 = load ptr, ptr %10, align 8, !tbaa !70
  %57 = getelementptr inbounds nuw %struct.IDABMemRec, ptr %56, i32 0, i32 2
  %58 = load ptr, ptr %57, align 8, !tbaa !75
  store ptr %58, ptr %12, align 8, !tbaa !3
  %59 = load ptr, ptr %10, align 8, !tbaa !70
  %60 = getelementptr inbounds nuw %struct.IDABMemRec, ptr %59, i32 0, i32 10
  %61 = load ptr, ptr %60, align 8, !tbaa !76
  %62 = icmp eq ptr %61, null
  br i1 %62, label %63, label %67

63:                                               ; preds = %55
  %64 = load ptr, ptr %10, align 8, !tbaa !70
  %65 = getelementptr inbounds nuw %struct.IDABMemRec, ptr %64, i32 0, i32 2
  %66 = load ptr, ptr %65, align 8, !tbaa !75
  call void (ptr, i32, ptr, ptr, ptr, ...) @IDAProcessError(ptr noundef %66, i32 noundef -102, ptr noundef @.str, ptr noundef @.str.23, ptr noundef @.str.21)
  store i32 -102, ptr %4, align 4
  store i32 1, ptr %14, align 4
  br label %84

67:                                               ; preds = %55
  %68 = load ptr, ptr %10, align 8, !tbaa !70
  %69 = getelementptr inbounds nuw %struct.IDABMemRec, ptr %68, i32 0, i32 10
  %70 = load ptr, ptr %69, align 8, !tbaa !76
  store ptr %70, ptr %11, align 8, !tbaa !77
  %71 = load ptr, ptr %7, align 8, !tbaa !3
  %72 = load ptr, ptr %11, align 8, !tbaa !77
  %73 = getelementptr inbounds nuw %struct.IDADlsMemRecB, ptr %72, i32 0, i32 3
  store ptr %71, ptr %73, align 8, !tbaa !93
  %74 = load ptr, ptr %7, align 8, !tbaa !3
  %75 = icmp ne ptr %74, null
  br i1 %75, label %76, label %79

76:                                               ; preds = %67
  %77 = load ptr, ptr %12, align 8, !tbaa !3
  %78 = call i32 @IDADlsSetBandJacFn(ptr noundef %77, ptr noundef @idaDlsBandJacBWrapper)
  store i32 %78, ptr %13, align 4, !tbaa !43
  br label %82

79:                                               ; preds = %67
  %80 = load ptr, ptr %12, align 8, !tbaa !3
  %81 = call i32 @IDADlsSetBandJacFn(ptr noundef %80, ptr noundef null)
  store i32 %81, ptr %13, align 4, !tbaa !43
  br label %82

82:                                               ; preds = %79, %76
  %83 = load i32, ptr %13, align 4, !tbaa !43
  store i32 %83, ptr %4, align 4
  store i32 1, ptr %14, align 4
  br label %84

84:                                               ; preds = %82, %63, %35, %24, %17
  call void @llvm.lifetime.end.p0(i64 4, ptr %13) #6
  call void @llvm.lifetime.end.p0(i64 8, ptr %12) #6
  call void @llvm.lifetime.end.p0(i64 8, ptr %11) #6
  call void @llvm.lifetime.end.p0(i64 8, ptr %10) #6
  call void @llvm.lifetime.end.p0(i64 8, ptr %9) #6
  call void @llvm.lifetime.end.p0(i64 8, ptr %8) #6
  %85 = load i32, ptr %4, align 4
  ret i32 %85
}